; ModuleID = 'source-C-CXX/25/46.cpp'
source_filename = "source-C-CXX/25/46.cpp"
target datalayout = "e-m:e-p270:32:32-p271:32:32-p272:64:64-i64:64-f80:128-n8:16:32:64-S128"
target triple = "x86_64-pc-linux-gnu"

%"class.std::ios_base::Init" = type { i8 }
%"class.std::basic_istream" = type { i32 (...)**, i64, %"class.std::basic_ios" }
%"class.std::basic_ios" = type { %"class.std::ios_base", %"class.std::basic_ostream"*, i8, i8, %"class.std::basic_streambuf"*, %"class.std::ctype"*, %"class.std::num_put"*, %"class.std::num_get"* }
%"class.std::ios_base" = type { i32 (...)**, i64, i64, i32, i32, i32, %"struct.std::ios_base::_Callback_list"*, %"struct.std::ios_base::_Words", [8 x %"struct.std::ios_base::_Words"], i32, %"struct.std::ios_base::_Words"*, %"class.std::locale" }
%"struct.std::ios_base::_Callback_list" = type { %"struct.std::ios_base::_Callback_list"*, void (i32, %"class.std::ios_base"*, i32)*, i32, i32 }
%"struct.std::ios_base::_Words" = type { i8*, i64 }
%"class.std::locale" = type { %"class.std::locale::_Impl"* }
%"class.std::locale::_Impl" = type { i32, %"class.std::locale::facet"**, i64, %"class.std::locale::facet"**, i8** }
%"class.std::locale::facet" = type <{ i32 (...)**, i32, [4 x i8] }>
%"class.std::basic_ostream" = type { i32 (...)**, %"class.std::basic_ios" }
%"class.std::basic_streambuf" = type { i32 (...)**, i8*, i8*, i8*, i8*, i8*, i8*, %"class.std::locale" }
%"class.std::ctype" = type <{ %"class.std::locale::facet.base", [4 x i8], %struct.__locale_struct*, i8, [7 x i8], i32*, i32*, i16*, i8, [256 x i8], [256 x i8], i8, [6 x i8] }>
%"class.std::locale::facet.base" = type <{ i32 (...)**, i32 }>
%struct.__locale_struct = type { [13 x %struct.__locale_data*], i16*, i32*, i32*, [13 x i8*] }
%struct.__locale_data = type opaque
%"class.std::num_put" = type { %"class.std::locale::facet.base", [4 x i8] }
%"class.std::num_get" = type { %"class.std::locale::facet.base", [4 x i8] }

@_ZStL8__ioinit = internal global %"class.std::ios_base::Init" zeroinitializer, align 1
@__dso_handle = external hidden global i8
@_ZSt3cin = external global %"class.std::basic_istream", align 8
@_ZSt4cout = external global %"class.std::basic_ostream", align 8
@llvm.global_ctors = appending global [1 x { i32, void ()*, i8* }] [{ i32, void ()*, i8* } { i32 65535, void ()* @_GLOBAL__sub_I_46.cpp, i8* null }]

declare void @_ZNSt8ios_base4InitC1Ev(%"class.std::ios_base::Init"* nonnull align 1 dereferenceable(1)) unnamed_addr #0

; Function Attrs: nounwind
declare void @_ZNSt8ios_base4InitD1Ev(%"class.std::ios_base::Init"* nonnull align 1 dereferenceable(1)) unnamed_addr #1

; Function Attrs: nofree nounwind
declare i32 @__cxa_atexit(void (i8*)*, i8*, i8*) local_unnamed_addr #2

; Function Attrs: mustprogress norecurse sspstrong uwtable
define dso_local i32 @main() local_unnamed_addr #3 {
  %1 = alloca [100 x i8], align 16
  %2 = getelementptr inbounds [100 x i8], [100 x i8]* %1, i64 0, i64 0
  call void @llvm.lifetime.start.p0i8(i64 100, i8* nonnull %2) #8
  %3 = load i8*, i8** bitcast (%"class.std::basic_istream"* @_ZSt3cin to i8**), align 8, !tbaa !5
  %4 = getelementptr i8, i8* %3, i64 -24
  %5 = bitcast i8* %4 to i64*
  %6 = load i64, i64* %5, align 8
  %7 = add nsw i64 %6, 240
  %8 = getelementptr inbounds i8, i8* bitcast (%"class.std::basic_istream"* @_ZSt3cin to i8*), i64 %7
  %9 = bitcast i8* %8 to %"class.std::ctype"**
  %10 = load %"class.std::ctype"*, %"class.std::ctype"** %9, align 8, !tbaa !8
  %11 = icmp eq %"class.std::ctype"* %10, null
  br i1 %11, label %12, label %13

12:                                               ; preds = %0
  tail call void @_ZSt16__throw_bad_castv() #9
  unreachable

13:                                               ; preds = %0
  %14 = getelementptr inbounds %"class.std::ctype", %"class.std::ctype"* %10, i64 0, i32 8
  %15 = load i8, i8* %14, align 8, !tbaa !13
  %16 = icmp eq i8 %15, 0
  br i1 %16, label %20, label %17

17:                                               ; preds = %13
  %18 = getelementptr inbounds %"class.std::ctype", %"class.std::ctype"* %10, i64 0, i32 9, i64 10
  %19 = load i8, i8* %18, align 1, !tbaa !15
  br label %26

20:                                               ; preds = %13
  tail call void @_ZNKSt5ctypeIcE13_M_widen_initEv(%"class.std::ctype"* nonnull align 8 dereferenceable(570) %10)
  %21 = bitcast %"class.std::ctype"* %10 to i8 (%"class.std::ctype"*, i8)***
  %22 = load i8 (%"class.std::ctype"*, i8)**, i8 (%"class.std::ctype"*, i8)*** %21, align 8, !tbaa !5
  %23 = getelementptr inbounds i8 (%"class.std::ctype"*, i8)*, i8 (%"class.std::ctype"*, i8)** %22, i64 6
  %24 = load i8 (%"class.std::ctype"*, i8)*, i8 (%"class.std::ctype"*, i8)** %23, align 8
  %25 = tail call signext i8 %24(%"class.std::ctype"* nonnull align 8 dereferenceable(570) %10, i8 signext 10)
  br label %26

26:                                               ; preds = %17, %20
  %27 = phi i8 [ %19, %17 ], [ %25, %20 ]
  %28 = call nonnull align 8 dereferenceable(16) %"class.std::basic_istream"* @_ZNSi3getEPclc(%"class.std::basic_istream"* nonnull align 8 dereferenceable(16) @_ZSt3cin, i8* nonnull %2, i64 100, i8 signext %27)
  br label %29

29:                                               ; preds = %26, %145
  %30 = phi i32 [ 0, %26 ], [ %147, %145 ]
  %31 = sext i32 %30 to i64
  %32 = getelementptr inbounds [100 x i8], [100 x i8]* %1, i64 0, i64 %31
  %33 = load i8, i8* %32, align 1, !tbaa !15
  %34 = icmp eq i8 %33, 32
  br i1 %34, label %35, label %145

35:                                               ; preds = %29
  %36 = add nsw i32 %30, 1
  %37 = sext i32 %36 to i64
  %38 = getelementptr inbounds [100 x i8], [100 x i8]* %1, i64 0, i64 %37
  %39 = load i8, i8* %38, align 1, !tbaa !15
  %40 = icmp eq i8 %39, 32
  br i1 %40, label %41, label %145

41:                                               ; preds = %35
  %42 = icmp slt i32 %30, 99
  br i1 %42, label %43, label %143

43:                                               ; preds = %41
  %44 = add nsw i64 %31, 1
  %45 = sub i32 98, %30
  %46 = zext i32 %45 to i64
  %47 = add nuw nsw i64 %46, 1
  %48 = icmp ult i32 %45, 7
  br i1 %48, label %133, label %49

49:                                               ; preds = %43
  %50 = icmp ult i32 %45, 31
  br i1 %50, label %113, label %51

51:                                               ; preds = %49
  %52 = and i64 %47, 8589934560
  %53 = add nsw i64 %52, -32
  %54 = lshr exact i64 %53, 5
  %55 = add nuw nsw i64 %54, 1
  %56 = and i64 %55, 1
  %57 = icmp eq i64 %53, 0
  br i1 %57, label %91, label %58

58:                                               ; preds = %51
  %59 = and i64 %55, 1152921504606846974
  br label %60

60:                                               ; preds = %60, %58
  %61 = phi i64 [ 0, %58 ], [ %88, %60 ]
  %62 = phi i64 [ %59, %58 ], [ %89, %60 ]
  %63 = add i64 %44, %61
  %64 = add nsw i64 %63, 1
  %65 = getelementptr inbounds [100 x i8], [100 x i8]* %1, i64 0, i64 %64
  %66 = bitcast i8* %65 to <16 x i8>*
  %67 = load <16 x i8>, <16 x i8>* %66, align 1, !tbaa !15
  %68 = getelementptr inbounds i8, i8* %65, i64 16
  %69 = bitcast i8* %68 to <16 x i8>*
  %70 = load <16 x i8>, <16 x i8>* %69, align 1, !tbaa !15
  %71 = getelementptr inbounds [100 x i8], [100 x i8]* %1, i64 0, i64 %63
  %72 = bitcast i8* %71 to <16 x i8>*
  store <16 x i8> %67, <16 x i8>* %72, align 1, !tbaa !15
  %73 = getelementptr inbounds i8, i8* %71, i64 16
  %74 = bitcast i8* %73 to <16 x i8>*
  store <16 x i8> %70, <16 x i8>* %74, align 1, !tbaa !15
  %75 = or i64 %61, 32
  %76 = add i64 %44, %75
  %77 = add nsw i64 %76, 1
  %78 = getelementptr inbounds [100 x i8], [100 x i8]* %1, i64 0, i64 %77
  %79 = bitcast i8* %78 to <16 x i8>*
  %80 = load <16 x i8>, <16 x i8>* %79, align 1, !tbaa !15
  %81 = getelementptr inbounds i8, i8* %78, i64 16
  %82 = bitcast i8* %81 to <16 x i8>*
  %83 = load <16 x i8>, <16 x i8>* %82, align 1, !tbaa !15
  %84 = getelementptr inbounds [100 x i8], [100 x i8]* %1, i64 0, i64 %76
  %85 = bitcast i8* %84 to <16 x i8>*
  store <16 x i8> %80, <16 x i8>* %85, align 1, !tbaa !15
  %86 = getelementptr inbounds i8, i8* %84, i64 16
  %87 = bitcast i8* %86 to <16 x i8>*
  store <16 x i8> %83, <16 x i8>* %87, align 1, !tbaa !15
  %88 = add nuw i64 %61, 64
  %89 = add i64 %62, -2
  %90 = icmp eq i64 %89, 0
  br i1 %90, label %91, label %60, !llvm.loop !16

91:                                               ; preds = %60, %51
  %92 = phi i64 [ 0, %51 ], [ %88, %60 ]
  %93 = icmp eq i64 %56, 0
  br i1 %93, label %107, label %94

94:                                               ; preds = %91
  %95 = add i64 %44, %92
  %96 = add nsw i64 %95, 1
  %97 = getelementptr inbounds [100 x i8], [100 x i8]* %1, i64 0, i64 %96
  %98 = bitcast i8* %97 to <16 x i8>*
  %99 = load <16 x i8>, <16 x i8>* %98, align 1, !tbaa !15
  %100 = getelementptr inbounds i8, i8* %97, i64 16
  %101 = bitcast i8* %100 to <16 x i8>*
  %102 = load <16 x i8>, <16 x i8>* %101, align 1, !tbaa !15
  %103 = getelementptr inbounds [100 x i8], [100 x i8]* %1, i64 0, i64 %95
  %104 = bitcast i8* %103 to <16 x i8>*
  store <16 x i8> %99, <16 x i8>* %104, align 1, !tbaa !15
  %105 = getelementptr inbounds i8, i8* %103, i64 16
  %106 = bitcast i8* %105 to <16 x i8>*
  store <16 x i8> %102, <16 x i8>* %106, align 1, !tbaa !15
  br label %107

107:                                              ; preds = %91, %94
  %108 = icmp eq i64 %47, %52
  br i1 %108, label %143, label %109

109:                                              ; preds = %107
  %110 = add nsw i64 %44, %52
  %111 = and i64 %47, 24
  %112 = icmp eq i64 %111, 0
  br i1 %112, label %133, label %113

113:                                              ; preds = %49, %109
  %114 = phi i64 [ %52, %109 ], [ 0, %49 ]
  %115 = sub i32 98, %30
  %116 = zext i32 %115 to i64
  %117 = add nuw nsw i64 %116, 1
  %118 = and i64 %117, 8589934584
  %119 = add nsw i64 %44, %118
  br label %120

120:                                              ; preds = %120, %113
  %121 = phi i64 [ %114, %113 ], [ %129, %120 ]
  %122 = add i64 %44, %121
  %123 = add nsw i64 %122, 1
  %124 = getelementptr inbounds [100 x i8], [100 x i8]* %1, i64 0, i64 %123
  %125 = bitcast i8* %124 to <8 x i8>*
  %126 = load <8 x i8>, <8 x i8>* %125, align 1, !tbaa !15
  %127 = getelementptr inbounds [100 x i8], [100 x i8]* %1, i64 0, i64 %122
  %128 = bitcast i8* %127 to <8 x i8>*
  store <8 x i8> %126, <8 x i8>* %128, align 1, !tbaa !15
  %129 = add nuw i64 %121, 8
  %130 = icmp eq i64 %129, %118
  br i1 %130, label %131, label %120, !llvm.loop !19

131:                                              ; preds = %120
  %132 = icmp eq i64 %117, %118
  br i1 %132, label %143, label %133

133:                                              ; preds = %43, %109, %131
  %134 = phi i64 [ %44, %43 ], [ %110, %109 ], [ %119, %131 ]
  br label %135

135:                                              ; preds = %133, %135
  %136 = phi i64 [ %137, %135 ], [ %134, %133 ]
  %137 = add nsw i64 %136, 1
  %138 = getelementptr inbounds [100 x i8], [100 x i8]* %1, i64 0, i64 %137
  %139 = load i8, i8* %138, align 1, !tbaa !15
  %140 = getelementptr inbounds [100 x i8], [100 x i8]* %1, i64 0, i64 %136
  store i8 %139, i8* %140, align 1, !tbaa !15
  %141 = trunc i64 %137 to i32
  %142 = icmp eq i32 %141, 100
  br i1 %142, label %143, label %135, !llvm.loop !20

143:                                              ; preds = %135, %107, %131, %41
  %144 = add nsw i32 %30, -1
  br label %145

145:                                              ; preds = %29, %35, %143
  %146 = phi i32 [ %144, %143 ], [ %30, %35 ], [ %30, %29 ]
  %147 = add nsw i32 %146, 1
  %148 = icmp slt i32 %146, 99
  br i1 %148, label %29, label %149, !llvm.loop !22

149:                                              ; preds = %145
  %150 = call i64 @strlen(i8* noundef nonnull dereferenceable(1) %2) #8
  %151 = call nonnull align 8 dereferenceable(8) %"class.std::basic_ostream"* @_ZSt16__ostream_insertIcSt11char_traitsIcEERSt13basic_ostreamIT_T0_ES6_PKS3_l(%"class.std::basic_ostream"* nonnull align 8 dereferenceable(8) @_ZSt4cout, i8* nonnull %2, i64 %150)
  call void @llvm.lifetime.end.p0i8(i64 100, i8* nonnull %2) #8
  ret i32 0
}

; Function Attrs: argmemonly mustprogress nofree nosync nounwind willreturn
declare void @llvm.lifetime.start.p0i8(i64 immarg, i8* nocapture) #4

; Function Attrs: argmemonly mustprogress nofree nosync nounwind willreturn
declare void @llvm.lifetime.end.p0i8(i64 immarg, i8* nocapture) #4

declare nonnull align 8 dereferenceable(16) %"class.std::basic_istream"* @_ZNSi3getEPclc(%"class.std::basic_istream"* nonnull align 8 dereferenceable(16), i8*, i64, i8 signext) local_unnamed_addr #0

; Function Attrs: noreturn
declare void @_ZSt16__throw_bad_castv() local_unnamed_addr #5

declare void @_ZNKSt5ctypeIcE13_M_widen_initEv(%"class.std::ctype"* nonnull align 8 dereferenceable(570)) local_unnamed_addr #0

declare nonnull align 8 dereferenceable(8) %"class.std::basic_ostream"* @_ZSt16__ostream_insertIcSt11char_traitsIcEERSt13basic_ostreamIT_T0_ES6_PKS3_l(%"class.std::basic_ostream"* nonnull align 8 dereferenceable(8), i8*, i64) local_unnamed_addr #0

; Function Attrs: argmemonly mustprogress nofree nounwind readonly willreturn
declare i64 @strlen(i8* nocapture) local_unnamed_addr #6

; Function Attrs: sspstrong uwtable
define internal void @_GLOBAL__sub_I_46.cpp() #7 section ".text.startup" {
  tail call void @_ZNSt8ios_base4InitC1Ev(%"class.std::ios_base::Init"* nonnull align 1 dereferenceable(1) @_ZStL8__ioinit)
  %1 = tail call i32 @__cxa_atexit(void (i8*)* bitcast (void (%"class.std::ios_base::Init"*)* @_ZNSt8ios_base4InitD1Ev to void (i8*)*), i8* getelementptr inbounds (%"class.std::ios_base::Init", %"class.std::ios_base::Init"* @_ZStL8__ioinit, i64 0, i32 0), i8* nonnull @__dso_handle) #8
  ret void
}


!llvm.module.flags = !{!0, !1, !2, !3}
!llvm.ident = !{!4}

!0 = !{i32 1, !"wchar_size", i32 4}
!1 = !{i32 7, !"PIC Level", i32 2}
!2 = !{i32 7, !"PIE Level", i32 2}
!3 = !{i32 7, !"uwtable", i32 1}
!4 = !{!"clang version 13.0.0"}
!5 = !{!6, !6, i64 0}
!6 = !{!"vtable pointer", !7, i64 0}
!7 = !{!"Simple C++ TBAA"}
!8 = !{!9, !10, i64 240}
!9 = !{!"_ZTSSt9basic_iosIcSt11char_traitsIcEE", !10, i64 216, !11, i64 224, !12, i64 225, !10, i64 232, !10, i64 240, !10, i64 248, !10, i64 256}
!10 = !{!"any pointer", !11, i64 0}
!11 = !{!"omnipotent char", !7, i64 0}
!12 = !{!"bool", !11, i64 0}
!13 = !{!14, !11, i64 56}
!14 = !{!"_ZTSSt5ctypeIcE", !10, i64 16, !12, i64 24, !10, i64 32, !10, i64 40, !10, i64 48, !11, i64 56, !11, i64 57, !11, i64 313, !11, i64 569}
!15 = !{!11, !11, i64 0}
!16 = distinct !{!16, !17, !18}
!17 = !{!"llvm.loop.mustprogress"}
!18 = !{!"llvm.loop.isvectorized", i32 1}
!19 = distinct !{!19, !17, !18}
!20 = distinct !{!20, !17, !21, !18}
!21 = !{!"llvm.loop.unroll.runtime.disable"}
!22 = distinct !{!22, !17}
